; Function Attrs: nounwind uwtable
define noalias nonnull ptr @l_Array_foldlMUnsafe_fold___at_Lake_Toml_elabSubKeys___spec__3___lambda__1___boxed(ptr noundef %0, ptr noundef %1, ptr noundef %2, ptr noundef %3, ptr noundef %4, ptr noundef %5) local_unnamed_addr #2 {
  tail call void @lean_inc_heartbeat() #8
  %7 = tail call noalias ptr @mi_malloc_small(i64 noundef 24) #8
  %8 = icmp eq ptr %7, null
  br i1 %8, label %9, label %lean_alloc_ctor.exit.i

9:                                                ; preds = %6
  tail call void @lean_internal_panic_out_of_memory() #9
  unreachable

lean_alloc_ctor.exit.i:                           ; preds = %6
  %10 = getelementptr inbounds nuw i8, ptr %7, i64 4
  store i32 1, ptr %7, align 4, !tbaa !4
  store i32 131096, ptr %10, align 4
  %11 = getelementptr inbounds nuw i8, ptr %7, i64 8
  store ptr %0, ptr %11, align 8, !tbaa !9
  %12 = getelementptr inbounds nuw i8, ptr %7, i64 16
  store ptr %2, ptr %12, align 8, !tbaa !9
  tail call void @lean_inc_heartbeat() #8
  %13 = tail call noalias ptr @mi_malloc_small(i64 noundef 24) #8
  %14 = icmp eq ptr %13, null
  br i1 %14, label %15, label %l_Array_foldlMUnsafe_fold___at_Lake_Toml_elabSubKeys___spec__3___lambda__1.exit

15:                                               ; preds = %lean_alloc_ctor.exit.i
  tail call void @lean_internal_panic_out_of_memory() #9
  unreachable

l_Array_foldlMUnsafe_fold___at_Lake_Toml_elabSubKeys___spec__3___lambda__1.exit: ; preds = %lean_alloc_ctor.exit.i
  %16 = getelementptr inbounds nuw i8, ptr %13, i64 4
  store i32 1, ptr %13, align 4, !tbaa !4
  store i32 131096, ptr %16, align 4
  %17 = getelementptr inbounds nuw i8, ptr %13, i64 8
  store ptr %7, ptr %17, align 8, !tbaa !9
  %18 = getelementptr inbounds nuw i8, ptr %13, i64 16
  store ptr %5, ptr %18, align 8, !tbaa !9
  %19 = ptrtoint ptr %4 to i64
  %20 = and i64 %19, 1
  %.not = icmp eq i64 %20, 0
  br i1 %.not, label %21, label %lean_dec.exit11

21:                                               ; preds = %l_Array_foldlMUnsafe_fold___at_Lake_Toml_elabSubKeys___spec__3___lambda__1.exit
  %22 = load i32, ptr %4, align 4, !tbaa !4
  %23 = icmp sgt i32 %22, 1
  br i1 %23, label %24, label %26, !prof !11

24:                                               ; preds = %21
  %25 = add nsw i32 %22, -1
  store i32 %25, ptr %4, align 4, !tbaa !4
  br label %lean_dec.exit11

26:                                               ; preds = %21
  %.not.i = icmp eq i32 %22, 0
  br i1 %.not.i, label %lean_dec.exit11, label %27

27:                                               ; preds = %26
  tail call void @lean_dec_ref_cold(ptr noundef nonnull %4) #8
  br label %lean_dec.exit11

lean_dec.exit11:                                  ; preds = %27, %26, %24, %l_Array_foldlMUnsafe_fold___at_Lake_Toml_elabSubKeys___spec__3___lambda__1.exit
  %28 = ptrtoint ptr %3 to i64
  %29 = and i64 %28, 1
  %.not16 = icmp eq i64 %29, 0
  br i1 %.not16, label %30, label %lean_dec.exit10

30:                                               ; preds = %lean_dec.exit11
  %31 = load i32, ptr %3, align 4, !tbaa !4
  %32 = icmp sgt i32 %31, 1
  br i1 %32, label %33, label %35, !prof !11

33:                                               ; preds = %30
  %34 = add nsw i32 %31, -1
  store i32 %34, ptr %3, align 4, !tbaa !4
  br label %lean_dec.exit10

35:                                               ; preds = %30
  %.not.i12 = icmp eq i32 %31, 0
  br i1 %.not.i12, label %lean_dec.exit10, label %36

36:                                               ; preds = %35
  tail call void @lean_dec_ref_cold(ptr noundef nonnull %3) #8
  br label %lean_dec.exit10

lean_dec.exit10:                                  ; preds = %36, %35, %33, %lean_dec.exit11
  %37 = ptrtoint ptr %1 to i64
  %38 = and i64 %37, 1
  %.not17 = icmp eq i64 %38, 0
  br i1 %.not17, label %39, label %lean_dec.exit

39:                                               ; preds = %lean_dec.exit10
  %40 = load i32, ptr %1, align 4, !tbaa !4
  %41 = icmp sgt i32 %40, 1
  br i1 %41, label %42, label %44, !prof !11

42:                                               ; preds = %39
  %43 = add nsw i32 %40, -1
  store i32 %43, ptr %1, align 4, !tbaa !4
  br label %lean_dec.exit

44:                                               ; preds = %39
  %.not.i14 = icmp eq i32 %40, 0
  br i1 %.not.i14, label %lean_dec.exit, label %45

45:                                               ; preds = %44
  tail call void @lean_dec_ref_cold(ptr noundef nonnull %1) #8
  br label %lean_dec.exit

lean_dec.exit:                                    ; preds = %45, %44, %42, %lean_dec.exit10
  ret ptr %13
}